; Function Attrs: nounwind sspstrong uwtable
define internal range(i64 1, 0) i64 @ossl_cipher_iv_length(i64 noundef %0) #0 {
  %2 = tail call ptr @rb_check_typeddata(i64 noundef %0, ptr noundef nonnull @ossl_cipher_type) #11
  %.not = icmp eq ptr %2, null
  br i1 %.not, label %3, label %5

3:                                                ; preds = %1
  %4 = load i64, ptr @rb_eRuntimeError, align 8, !tbaa !6
  tail call void (i64, ptr, ...) @ossl_raise(i64 noundef %4, ptr noundef nonnull @.str) #12
  unreachable

5:                                                ; preds = %1
  %6 = tail call ptr @EVP_CIPHER_CTX_cipher(ptr noundef nonnull %2) #11
  %7 = tail call i64 @EVP_CIPHER_get_flags(ptr noundef %6) #11
  %8 = and i64 %7, 2097152
  %.not7 = icmp eq i64 %8, 0
  br i1 %.not7, label %.thread, label %9

9:                                                ; preds = %5
  %10 = tail call ptr @EVP_CIPHER_CTX_get_app_data(ptr noundef nonnull %2) #11
  %11 = ptrtoint ptr %10 to i64
  %12 = trunc i64 %11 to i32
  %.not8 = icmp eq i32 %12, 0
  br i1 %.not8, label %.thread, label %14

.thread:                                          ; preds = %5, %9
  %13 = tail call i32 @EVP_CIPHER_CTX_get_iv_length(ptr noundef nonnull %2) #11
  br label %14

14:                                               ; preds = %.thread, %9
  %.1 = phi i32 [ %12, %9 ], [ %13, %.thread ]
  %15 = sext i32 %.1 to i64
  %16 = shl nsw i64 %15, 1
  %17 = or disjoint i64 %16, 1
  ret i64 %17
}